; Function Attrs: nounwind uwtable
define ptr @l___private_Lean_Meta_Tactic_Grind_Core_0__Lean_Meta_Grind_addFactStep_go___lambda__2___boxed(ptr noundef %0, ptr noundef %1, ptr noundef %2, ptr noundef %3, ptr noundef %4, ptr noundef %5, ptr noundef %6, ptr noundef %7, ptr noundef %8, ptr noundef %9, ptr noundef %10, ptr noundef %11, ptr noundef %12, ptr noundef %13, ptr noundef %14, ptr noundef %15) local_unnamed_addr #1 {
  %17 = ptrtoint ptr %3 to i64
  %18 = lshr i64 %17, 1
  %19 = trunc i64 %18 to i8
  %20 = and i64 %17, 1
  %.not = icmp eq i64 %20, 0
  br i1 %.not, label %21, label %lean_dec.exit19

21:                                               ; preds = %16
  %22 = load i32, ptr %3, align 4, !tbaa !8
  %23 = icmp sgt i32 %22, 1
  br i1 %23, label %24, label %26, !prof !13

24:                                               ; preds = %21
  %25 = add nsw i32 %22, -1
  store i32 %25, ptr %3, align 4, !tbaa !8
  br label %lean_dec.exit19

26:                                               ; preds = %21
  %.not.i = icmp eq i32 %22, 0
  br i1 %.not.i, label %lean_dec.exit19, label %27

27:                                               ; preds = %26
  tail call void @lean_dec_ref_cold(ptr noundef nonnull %3) #5
  br label %lean_dec.exit19

lean_dec.exit19:                                  ; preds = %27, %26, %24, %16
  %28 = tail call ptr @l___private_Lean_Meta_Tactic_Grind_Core_0__Lean_Meta_Grind_addFactStep_go___lambda__2(ptr noundef %0, ptr noundef %1, ptr noundef %2, i8 noundef zeroext %19, ptr noundef %4, ptr noundef %5, ptr noundef %6, ptr noundef %7, ptr noundef %8, ptr noundef %9, ptr noundef %10, ptr noundef %11, ptr noundef %12, ptr noundef %13, ptr noundef %14, ptr noundef %15)
  %29 = ptrtoint ptr %4 to i64
  %30 = and i64 %29, 1
  %.not22 = icmp eq i64 %30, 0
  br i1 %.not22, label %31, label %lean_dec.exit

31:                                               ; preds = %lean_dec.exit19
  %32 = load i32, ptr %4, align 4, !tbaa !8
  %33 = icmp sgt i32 %32, 1
  br i1 %33, label %34, label %36, !prof !13

34:                                               ; preds = %31
  %35 = add nsw i32 %32, -1
  store i32 %35, ptr %4, align 4, !tbaa !8
  br label %lean_dec.exit

36:                                               ; preds = %31
  %.not.i20 = icmp eq i32 %32, 0
  br i1 %.not.i20, label %lean_dec.exit, label %37

37:                                               ; preds = %36
  tail call void @lean_dec_ref_cold(ptr noundef nonnull %4) #5
  br label %lean_dec.exit

lean_dec.exit:                                    ; preds = %37, %36, %34, %lean_dec.exit19
  ret ptr %28
}